target datalayout = "e-m:e-p270:32:32-p271:32:32-p272:64:64-i64:64-i128:128-f80:128-n8:16:32:64-S128"
target triple = "x86_64-pc-linux-gnu"

@.str.10 = private unnamed_addr constant [6 x i8] c"diff3\00", align 1
@.str.11 = private unnamed_addr constant [7 x i8] c"zdiff3\00", align 1
@.str.12 = private unnamed_addr constant [6 x i8] c"merge\00", align 1

; Function Attrs: nounwind uwtable
define dso_local i32 @parse_conflict_style_name(ptr noundef %0) #0 {
  %2 = alloca i32, align 4
  %3 = alloca ptr, align 8
  store ptr %0, ptr %3, align 8, !tbaa !16
  %4 = load ptr, ptr %3, align 8, !tbaa !16
  %5 = call i32 @strcmp(ptr noundef %4, ptr noundef @.str.10) #10
  %6 = icmp ne i32 %5, 0
  br i1 %6, label %8, label %7

7:                                                ; preds = %1
  store i32 1, ptr %2, align 4
  br label %19

8:                                                ; preds = %1
  %9 = load ptr, ptr %3, align 8, !tbaa !16
  %10 = call i32 @strcmp(ptr noundef %9, ptr noundef @.str.11) #10
  %11 = icmp ne i32 %10, 0
  br i1 %11, label %13, label %12

12:                                               ; preds = %8
  store i32 2, ptr %2, align 4
  br label %19

13:                                               ; preds = %8
  %14 = load ptr, ptr %3, align 8, !tbaa !16
  %15 = call i32 @strcmp(ptr noundef %14, ptr noundef @.str.12) #10
  %16 = icmp ne i32 %15, 0
  br i1 %16, label %18, label %17

17:                                               ; preds = %13
  store i32 0, ptr %2, align 4
  br label %19

18:                                               ; preds = %13
  store i32 -1, ptr %2, align 4
  br label %19

19:                                               ; preds = %18, %17, %12, %7
  %20 = load i32, ptr %2, align 4
  ret i32 %20
}