; Function Attrs: mustprogress nofree nounwind willreturn memory(argmem: read) uwtable
define dso_local range(i32 -1, 3) i32 @parse_conflict_style_name(ptr noundef readonly captures(none) %0) local_unnamed_addr #7 {
  %2 = tail call i32 @strcmp(ptr noundef nonnull dereferenceable(1) %0, ptr noundef nonnull dereferenceable(6) @.str.10) #15
  %.not = icmp eq i32 %2, 0
  br i1 %.not, label %7, label %3

3:                                                ; preds = %1
  %4 = tail call i32 @strcmp(ptr noundef nonnull dereferenceable(1) %0, ptr noundef nonnull dereferenceable(7) @.str.11) #15
  %.not3 = icmp eq i32 %4, 0
  br i1 %.not3, label %7, label %5

5:                                                ; preds = %3
  %6 = tail call i32 @strcmp(ptr noundef nonnull dereferenceable(1) %0, ptr noundef nonnull dereferenceable(6) @.str.12) #15
  %.not4 = icmp ne i32 %6, 0
  %. = sext i1 %.not4 to i32
  br label %7

7:                                                ; preds = %5, %3, %1
  %.0 = phi i32 [ 1, %1 ], [ 2, %3 ], [ %., %5 ]
  ret i32 %.0
}